Certificate Request:
    Data:
        Version: 1 (0x0)
        Subject: CN=pending
        Subject Public Key Info:
            Public Key Algorithm: rsaEncryption
                RSA Public-Key: (2048 bit)
                Modulus:
                    00:ca:4a:fc:49:f0:75:de:db:71:88:87:f7:48:ec:
                    77:67:7c:38:a4:91:24:47:a4:85:1c:38:e4:ec:6d:
                    8a:aa:24:8d:fb:1c:41:ca:96:d7:92:70:14:9d:cc:
                    a7:26:d5:91:04:87:c3:9b:bc:7c:c2:7d:5f:8d:50:
                    75:d6:02:51:a3:38:94:b8:b8:63:4b:38:cf:08:0b:
                    c0:31:d9:a6:db:61:b7:11:32:95:ca:87:dc:54:21:
                    d1:bb:56:b9:2c:f2:c6:84:1f:54:df:09:d1:50:9d:
                    ae:97:45:f9:c0:66:58:d9:63:3e:fb:bf:af:e6:1a:
                    c8:ee:84:6b:cd:50:fe:dc:7a:52:74:17:3c:35:89:
                    4b:a7:48:3b:b8:84:ae:d1:0c:3c:5c:e0:e3:4c:20:
                    f8:aa:a4:70:4e:10:15:5e:a5:6e:6f:99:87:fd:79:
                    45:40:2b:6b:ec:e3:36:7a:ed:73:02:28:c7:cb:2e:
                    a0:ca:34:05:31:f5:98:c9:27:40:e6:e3:f3:26:2a:
                    25:cc:89:52:87:a0:33:a5:61:a2:c6:73:bd:a7:fc:
                    a6:0b:93:46:fe:3b:a7:6f:a3:3b:a4:6d:1e:1b:d1:
                    c4:28:09:ea:1d:b4:aa:f3:9a:fb:10:a2:b2:21:f2:
                    86:70:a4:b8:a8:df:4c:09:2c:fb:d2:48:a9:1c:3a:
                    4d:17
                Exponent: 65537 (0x10001)
        Attributes:
            a0:00
        Requested Extensions:
    Signature Algorithm: sha256WithRSAEncryption
         83:dd:e5:75:b1:5b:15:6e:1e:b0:54:87:db:d0:c8:dd:12:a7:
         42:1b:5e:b3:d0:4b:c3:d5:dc:70:6f:73:2a:09:1c:db:88:02:
         93:20:d1:07:ee:dd:be:ab:a4:e7:e5:9f:de:ec:6a:ec:95:17:
         1f:2d:89:85:42:b2:9c:e8:a5:d5:28:21:6a:83:33:a6:62:bd:
         98:72:3d:63:db:94:08:21:4a:ad:d4:15:75:c1:f0:f4:30:d1:
         f4:17:e8:e7:5f:74:e9:69:e7:33:77:9e:4b:92:4c:27:ee:4b:
         bd:c1:e5:69:18:f3:55:37:11:c6:57:5b:61:22:24:bf:3a:1b:
         c7:29:c0:72:50:3c:ce:4b:75:e4:64:16:8f:31:4d:19:04:95:
         3b:61:f0:c3:ae:ac:2c:b9:f2:b4:10:c7:f0:e7:79:db:4a:37:
         aa:63:3e:e6:b3:88:03:63:b8:1c:65:d6:3c:9f:d5:a6:43:49:
         ed:e7:bb:f3:c4:9c:5b:aa:34:23:91:38:13:12:68:22:a2:cc:
         f8:56:6c:8b:bc:f5:46:36:2b:2b:9c:b1:94:d0:09:59:fd:07:
         c7:62:74:aa:ee:f8:1b:0d:83:05:37:43:4d:d4:0b:c9:a4:57:
         9d:91:ce:9b:5b:5f:6f:87:12:02:69:f7:43:6d:05:f3:6b:e8:
         f2:a5:9f:6b

-----BEGIN CERTIFICATE REQUEST-----
MIICVzCCAT8CAQAwEjEQMA4GA1UEAwwHcGVuZGluZzCCASIwDQYJKoZIhvcNAQEB
BQADggEPADCCAQoCggEBAMpK/Enwdd7bcYiH90jsd2d8OKSRJEekhRw45Oxtiqok
jfscQcqW15JwFJ3MpybVkQSHw5u8fMJ9X41QddYCUaM4lLi4Y0s4zwgLwDHZptth
txEylcqH3FQh0btWuSzyxoQfVN8J0VCdrpdF+cBmWNljPvu/r+YayO6Ea81Q/tx6
UnQXPDWJS6dIO7iErtEMPFzg40wg+KqkcE4QFV6lbm+Zh/15RUAra+zjNnrtcwIo
x8suoMo0BTH1mMknQObj8yYqJcyJUoegM6VhosZzvaf8pguTRv47p2+jO6RtHhvR
xCgJ6h20qvOa+xCisiHyhnCkuKjfTAks+9JIqRw6TRcCAwEAAaAAMA0GCSqGSIb3
DQEBCwUAA4IBAQCD3eV1sVsVbh6wVIfb0MjdEqdCG16z0EvD1dxwb3MqCRzbiAKT
INEH7t2+q6Tn5Z/e7GrslRcfLYmFQrKc6KXVKCFqgzOmYr2Ycj1j25QIIUqt1BV1
wfD0MNH0F+jnX3Tpaeczd55Lkkwn7ku9weVpGPNVNxHGV1thIiS/OhvHKcByUDzO
S3XkZBaPMU0ZBJU7YfDDrqwsufK0EMfw53nbSjeqYz7ms4gDY7gcZdY8n9WmQ0nt
57vzxJxbqjQjkTgTEmgiosz4VmyLvPVGNisrnLGU0AlZ/QfHYnSq7vgbDYMFN0NN
1AvJpFedkc6bW19vhxICafdDbQXza+jypZ9r
-----END CERTIFICATE REQUEST-----
